; Function Attrs: nounwind uwtable
define ptr @l_Array_foldlMUnsafe_fold___at___private_Lean_Compiler_FFI_0__Lean_Compiler_FFI_flagsStringToArray___spec__1(ptr noundef readonly captures(none) %0, i64 noundef %1, i64 noundef %2, ptr noundef %3) local_unnamed_addr #0 {
  %.not36 = icmp eq i64 %1, %2
  br i1 %.not36, label %._crit_edge, label %.lr.ph

.lr.ph:                                           ; preds = %4
  %5 = getelementptr inbounds nuw i8, ptr %0, i64 24
  br label %6

6:                                                ; preds = %.lr.ph, %lean_dec.exit
  %.02138 = phi i64 [ %1, %.lr.ph ], [ %28, %lean_dec.exit ]
  %.02337 = phi ptr [ %3, %.lr.ph ], [ %.225, %lean_dec.exit ]
  %7 = getelementptr inbounds nuw [0 x ptr], ptr %5, i64 0, i64 %.02138
  %8 = load ptr, ptr %7, align 8, !tbaa !4
  %9 = ptrtoint ptr %8 to i64
  %10 = and i64 %9, 1
  %.not.i26 = icmp eq i64 %10, 0
  br i1 %.not.i26, label %11, label %lean_array_uget.exit

11:                                               ; preds = %6
  %.val.i.i = load i32, ptr %8, align 4, !tbaa !8
  %12 = icmp sgt i32 %.val.i.i, 0
  br i1 %12, label %13, label %15, !prof !11

13:                                               ; preds = %11
  %14 = add nuw i32 %.val.i.i, 1
  store i32 %14, ptr %8, align 4, !tbaa !8
  br label %lean_array_uget.exit

15:                                               ; preds = %11
  %.not.i.i = icmp eq i32 %.val.i.i, 0
  br i1 %.not.i.i, label %lean_array_uget.exit, label %16

16:                                               ; preds = %15
  tail call void @lean_inc_ref_cold(ptr noundef nonnull %8) #3
  br label %lean_array_uget.exit

lean_array_uget.exit:                             ; preds = %6, %13, %15, %16
  %17 = load ptr, ptr @l_Array_foldlMUnsafe_fold___at___private_Lean_Compiler_FFI_0__Lean_Compiler_FFI_flagsStringToArray___spec__1___closed__1, align 8, !tbaa !4
  %18 = icmp eq ptr %8, %17
  br i1 %18, label %lean_string_dec_eq.exit, label %19

19:                                               ; preds = %lean_array_uget.exit
  %20 = getelementptr i8, ptr %8, i64 8
  %.val.i.i27 = load i64, ptr %20, align 8, !tbaa !12
  %21 = getelementptr i8, ptr %17, i64 8
  %.val7.i.i = load i64, ptr %21, align 8, !tbaa !12
  %22 = icmp eq i64 %.val.i.i27, %.val7.i.i
  br i1 %22, label %23, label %lean_string_dec_eq.exit

23:                                               ; preds = %19
  %24 = tail call zeroext i1 @lean_string_eq_cold(ptr noundef nonnull %8, ptr noundef nonnull %17) #3
  %25 = zext i1 %24 to i8
  br label %lean_string_dec_eq.exit

lean_string_dec_eq.exit:                          ; preds = %lean_array_uget.exit, %19, %23
  %26 = phi i8 [ 1, %lean_array_uget.exit ], [ 0, %19 ], [ %25, %23 ]
  %27 = tail call zeroext i8 @l_instDecidableNot___rarg(i8 noundef zeroext %26) #3
  %28 = add i64 %.02138, 1
  %29 = icmp eq i8 %27, 0
  br i1 %29, label %30, label %38

30:                                               ; preds = %lean_string_dec_eq.exit
  br i1 %.not.i26, label %31, label %lean_dec.exit

31:                                               ; preds = %30
  %32 = load i32, ptr %8, align 4, !tbaa !8
  %33 = icmp sgt i32 %32, 1
  br i1 %33, label %34, label %36, !prof !11

34:                                               ; preds = %31
  %35 = add nsw i32 %32, -1
  store i32 %35, ptr %8, align 4, !tbaa !8
  br label %lean_dec.exit

36:                                               ; preds = %31
  %.not.i = icmp eq i32 %32, 0
  br i1 %.not.i, label %lean_dec.exit, label %37

37:                                               ; preds = %36
  tail call void @lean_dec_ref_cold(ptr noundef nonnull %8) #3
  br label %lean_dec.exit

38:                                               ; preds = %lean_string_dec_eq.exit
  %39 = tail call ptr @lean_array_push(ptr noundef %.02337, ptr noundef %8) #3
  br label %lean_dec.exit

lean_dec.exit:                                    ; preds = %30, %34, %36, %37, %38
  %.225 = phi ptr [ %39, %38 ], [ %.02337, %37 ], [ %.02337, %36 ], [ %.02337, %34 ], [ %.02337, %30 ]
  %.not = icmp eq i64 %28, %2
  br i1 %.not, label %._crit_edge, label %6

._crit_edge:                                      ; preds = %lean_dec.exit, %4
  %.023.lcssa = phi ptr [ %3, %4 ], [ %.225, %lean_dec.exit ]
  ret ptr %.023.lcssa
}